target datalayout = "e-m:e-p270:32:32-p271:32:32-p272:64:64-i64:64-f80:128-n8:16:32:64-S128"
target triple = "x86_64-pc-linux-gnu"

@.str = private unnamed_addr constant [3 x i8] c"%d\00", align 1
@.str.1 = private unnamed_addr constant [4 x i8] c",%d\00", align 1

; Function Attrs: noinline nounwind uwtable
define dso_local void @main() #0 {
  %1 = alloca i32, align 4
  %2 = alloca [100 x i32], align 16
  %3 = alloca [100 x i32], align 16
  %4 = alloca i32, align 4
  %5 = alloca i32, align 4
  %6 = alloca float, align 4
  %7 = alloca [100 x float], align 16
  store i32 0, i32* %5, align 4
  store float 0.000000e+00, float* %6, align 4
  %8 = call i32 (i8*, ...) @__isoc99_scanf(i8* getelementptr inbounds ([3 x i8], [3 x i8]* @.str, i64 0, i64 0), i32* %1)
  store i32 0, i32* %4, align 4
  br label %9

9:                                                ; preds = %25, %0
  %10 = load i32, i32* %4, align 4
  %11 = load i32, i32* %1, align 4
  %12 = icmp slt i32 %10, %11
  br i1 %12, label %13, label %28

13:                                               ; preds = %9
  %14 = load i32, i32* %4, align 4
  %15 = sext i32 %14 to i64
  %16 = getelementptr inbounds [100 x i32], [100 x i32]* %2, i64 0, i64 %15
  %17 = call i32 (i8*, ...) @__isoc99_scanf(i8* getelementptr inbounds ([3 x i8], [3 x i8]* @.str, i64 0, i64 0), i32* %16)
  %18 = load float, float* %6, align 4
  %19 = load i32, i32* %4, align 4
  %20 = sext i32 %19 to i64
  %21 = getelementptr inbounds [100 x i32], [100 x i32]* %2, i64 0, i64 %20
  %22 = load i32, i32* %21, align 4
  %23 = sitofp i32 %22 to float
  %24 = fadd float %18, %23
  store float %24, float* %6, align 4
  br label %25

25:                                               ; preds = %13
  %26 = load i32, i32* %4, align 4
  %27 = add nsw i32 %26, 1
  store i32 %27, i32* %4, align 4
  br label %9

28:                                               ; preds = %9
  %29 = load float, float* %6, align 4
  %30 = load i32, i32* %1, align 4
  %31 = sitofp i32 %30 to float
  %32 = fdiv float %29, %31
  store float %32, float* %6, align 4
  store i32 0, i32* %4, align 4
  br label %33

33:                                               ; preds = %51, %28
  %34 = load i32, i32* %4, align 4
  %35 = load i32, i32* %1, align 4
  %36 = icmp slt i32 %34, %35
  br i1 %36, label %37, label %54

37:                                               ; preds = %33
  %38 = load i32, i32* %4, align 4
  %39 = sext i32 %38 to i64
  %40 = getelementptr inbounds [100 x i32], [100 x i32]* %2, i64 0, i64 %39
  %41 = load i32, i32* %40, align 4
  %42 = sitofp i32 %41 to float
  %43 = load float, float* %6, align 4
  %44 = fsub float %42, %43
  %45 = fpext float %44 to double
  %46 = call double @llvm.fabs.f64(double %45)
  %47 = fptrunc double %46 to float
  %48 = load i32, i32* %4, align 4
  %49 = sext i32 %48 to i64
  %50 = getelementptr inbounds [100 x float], [100 x float]* %7, i64 0, i64 %49
  store float %47, float* %50, align 4
  br label %51

51:                                               ; preds = %37
  %52 = load i32, i32* %4, align 4
  %53 = add nsw i32 %52, 1
  store i32 %53, i32* %4, align 4
  br label %33

54:                                               ; preds = %33
  %55 = getelementptr inbounds [100 x float], [100 x float]* %7, i64 0, i64 0
  %56 = load float, float* %55, align 16
  store float %56, float* %6, align 4
  store i32 0, i32* %4, align 4
  br label %57

57:                                               ; preds = %74, %54
  %58 = load i32, i32* %4, align 4
  %59 = load i32, i32* %1, align 4
  %60 = icmp slt i32 %58, %59
  br i1 %60, label %61, label %77

61:                                               ; preds = %57
  %62 = load i32, i32* %4, align 4
  %63 = sext i32 %62 to i64
  %64 = getelementptr inbounds [100 x float], [100 x float]* %7, i64 0, i64 %63
  %65 = load float, float* %64, align 4
  %66 = load float, float* %6, align 4
  %67 = fcmp ogt float %65, %66
  br i1 %67, label %68, label %73

68:                                               ; preds = %61
  %69 = load i32, i32* %4, align 4
  %70 = sext i32 %69 to i64
  %71 = getelementptr inbounds [100 x float], [100 x float]* %7, i64 0, i64 %70
  %72 = load float, float* %71, align 4
  store float %72, float* %6, align 4
  br label %73

73:                                               ; preds = %68, %61
  br label %74

74:                                               ; preds = %73
  %75 = load i32, i32* %4, align 4
  %76 = add nsw i32 %75, 1
  store i32 %76, i32* %4, align 4
  br label %57

77:                                               ; preds = %57
  store i32 0, i32* %4, align 4
  br label %78

78:                                               ; preds = %99, %77
  %79 = load i32, i32* %4, align 4
  %80 = load i32, i32* %1, align 4
  %81 = icmp slt i32 %79, %80
  br i1 %81, label %82, label %102

82:                                               ; preds = %78
  %83 = load i32, i32* %4, align 4
  %84 = sext i32 %83 to i64
  %85 = getelementptr inbounds [100 x float], [100 x float]* %7, i64 0, i64 %84
  %86 = load float, float* %85, align 4
  %87 = load float, float* %6, align 4
  %88 = fcmp oeq float %86, %87
  br i1 %88, label %89, label %98

89:                                               ; preds = %82
  %90 = load i32, i32* %4, align 4
  %91 = sext i32 %90 to i64
  %92 = getelementptr inbounds [100 x i32], [100 x i32]* %2, i64 0, i64 %91
  %93 = load i32, i32* %92, align 4
  %94 = load i32, i32* %5, align 4
  %95 = add nsw i32 %94, 1
  store i32 %95, i32* %5, align 4
  %96 = sext i32 %94 to i64
  %97 = getelementptr inbounds [100 x i32], [100 x i32]* %3, i64 0, i64 %96
  store i32 %93, i32* %97, align 4
  br label %98

98:                                               ; preds = %89, %82
  br label %99

99:                                               ; preds = %98
  %100 = load i32, i32* %4, align 4
  %101 = add nsw i32 %100, 1
  store i32 %101, i32* %4, align 4
  br label %78

102:                                              ; preds = %78
  store i32 0, i32* %4, align 4
  br label %103

103:                                              ; preds = %148, %102
  %104 = load i32, i32* %4, align 4
  %105 = load i32, i32* %5, align 4
  %106 = sub nsw i32 %105, 1
  %107 = icmp slt i32 %104, %106
  br i1 %107, label %108, label %151

108:                                              ; preds = %103
  %109 = load i32, i32* %4, align 4
  %110 = add nsw i32 %109, 1
  store i32 %110, i32* %1, align 4
  br label %111

111:                                              ; preds = %144, %108
  %112 = load i32, i32* %1, align 4
  %113 = load i32, i32* %5, align 4
  %114 = icmp slt i32 %112, %113
  br i1 %114, label %115, label %147

115:                                              ; preds = %111
  %116 = load i32, i32* %1, align 4
  %117 = sext i32 %116 to i64
  %118 = getelementptr inbounds [100 x i32], [100 x i32]* %3, i64 0, i64 %117
  %119 = load i32, i32* %118, align 4
  %120 = load i32, i32* %4, align 4
  %121 = sext i32 %120 to i64
  %122 = getelementptr inbounds [100 x i32], [100 x i32]* %3, i64 0, i64 %121
  %123 = load i32, i32* %122, align 4
  %124 = icmp slt i32 %119, %123
  br i1 %124, label %125, label %143

125:                                              ; preds = %115
  %126 = load i32, i32* %1, align 4
  %127 = sext i32 %126 to i64
  %128 = getelementptr inbounds [100 x i32], [100 x i32]* %3, i64 0, i64 %127
  %129 = load i32, i32* %128, align 4
  %130 = sitofp i32 %129 to float
  store float %130, float* %6, align 4
  %131 = load i32, i32* %4, align 4
  %132 = sext i32 %131 to i64
  %133 = getelementptr inbounds [100 x i32], [100 x i32]* %3, i64 0, i64 %132
  %134 = load i32, i32* %133, align 4
  %135 = load i32, i32* %1, align 4
  %136 = sext i32 %135 to i64
  %137 = getelementptr inbounds [100 x i32], [100 x i32]* %3, i64 0, i64 %136
  store i32 %134, i32* %137, align 4
  %138 = load float, float* %6, align 4
  %139 = fptosi float %138 to i32
  %140 = load i32, i32* %4, align 4
  %141 = sext i32 %140 to i64
  %142 = getelementptr inbounds [100 x i32], [100 x i32]* %3, i64 0, i64 %141
  store i32 %139, i32* %142, align 4
  br label %143

143:                                              ; preds = %125, %115
  br label %144

144:                                              ; preds = %143
  %145 = load i32, i32* %1, align 4
  %146 = add nsw i32 %145, 1
  store i32 %146, i32* %1, align 4
  br label %111

147:                                              ; preds = %111
  br label %148

148:                                              ; preds = %147
  %149 = load i32, i32* %4, align 4
  %150 = add nsw i32 %149, 1
  store i32 %150, i32* %4, align 4
  br label %103

151:                                              ; preds = %103
  store i32 0, i32* %4, align 4
  br label %152

152:                                              ; preds = %172, %151
  %153 = load i32, i32* %4, align 4
  %154 = load i32, i32* %5, align 4
  %155 = icmp slt i32 %153, %154
  br i1 %155, label %156, label %175

156:                                              ; preds = %152
  %157 = load i32, i32* %4, align 4
  %158 = icmp eq i32 %157, 0
  br i1 %158, label %159, label %165

159:                                              ; preds = %156
  %160 = load i32, i32* %4, align 4
  %161 = sext i32 %160 to i64
  %162 = getelementptr inbounds [100 x i32], [100 x i32]* %3, i64 0, i64 %161
  %163 = load i32, i32* %162, align 4
  %164 = call i32 (i8*, ...) @printf(i8* getelementptr inbounds ([3 x i8], [3 x i8]* @.str, i64 0, i64 0), i32 %163)
  br label %171

165:                                              ; preds = %156
  %166 = load i32, i32* %4, align 4
  %167 = sext i32 %166 to i64
  %168 = getelementptr inbounds [100 x i32], [100 x i32]* %3, i64 0, i64 %167
  %169 = load i32, i32* %168, align 4
  %170 = call i32 (i8*, ...) @printf(i8* getelementptr inbounds ([4 x i8], [4 x i8]* @.str.1, i64 0, i64 0), i32 %169)
  br label %171

171:                                              ; preds = %165, %159
  br label %172

172:                                              ; preds = %171
  %173 = load i32, i32* %4, align 4
  %174 = add nsw i32 %173, 1
  store i32 %174, i32* %4, align 4
  br label %152

175:                                              ; preds = %152
  ret void
}